target datalayout = "e-m:e-p270:32:32-p271:32:32-p272:64:64-i64:64-i128:128-f80:128-n8:16:32:64-S128"
target triple = "x86_64-pc-linux-gnu"

%"struct.llvm::coverage::Counter" = type { i32, i32 }
%"class.llvm::coverage::CounterExpressionBuilder" = type { %"class.std::vector", %"class.llvm::DenseMap" }
%"class.std::vector" = type { %"struct.std::_Vector_base" }
%"struct.std::_Vector_base" = type { %"struct.std::_Vector_base<llvm::coverage::CounterExpression, std::allocator<llvm::coverage::CounterExpression>>::_Vector_impl" }
%"struct.std::_Vector_base<llvm::coverage::CounterExpression, std::allocator<llvm::coverage::CounterExpression>>::_Vector_impl" = type { %"struct.std::_Vector_base<llvm::coverage::CounterExpression, std::allocator<llvm::coverage::CounterExpression>>::_Vector_impl_data" }
%"struct.std::_Vector_base<llvm::coverage::CounterExpression, std::allocator<llvm::coverage::CounterExpression>>::_Vector_impl_data" = type { ptr, ptr, ptr }
%"class.llvm::DenseMap" = type <{ ptr, i32, i32, i32, [4 x i8] }>
%"struct.llvm::coverage::CounterExpression" = type { i32, %"struct.llvm::coverage::Counter", %"struct.llvm::coverage::Counter" }

; Function Attrs: mustprogress nounwind uwtable
define linkonce_odr hidden noundef nonnull align 4 dereferenceable(20) ptr @_ZNSt6vectorIN4llvm8coverage17CounterExpressionESaIS2_EEixEm(ptr noundef nonnull align 8 dereferenceable(24) %0, i64 noundef %1) #0 comdat align 2 {
  %3 = alloca ptr, align 8
  %4 = alloca i64, align 8
  store ptr %0, ptr %3, align 8
  store i64 %1, ptr %4, align 8
  %5 = load ptr, ptr %3, align 8
  %6 = getelementptr inbounds nuw %"struct.std::_Vector_base", ptr %5, i32 0, i32 0
  %7 = getelementptr inbounds nuw %"struct.std::_Vector_base<llvm::coverage::CounterExpression, std::allocator<llvm::coverage::CounterExpression>>::_Vector_impl_data", ptr %6, i32 0, i32 0
  %8 = load ptr, ptr %7, align 8
  %9 = load i64, ptr %4, align 8
  %10 = getelementptr inbounds %"struct.llvm::coverage::CounterExpression", ptr %8, i64 %9
  ret ptr %10
}

; Function Attrs: mustprogress nounwind uwtable
define linkonce_odr hidden noundef i32 @_ZNK4llvm8coverage7Counter15getExpressionIDEv(ptr noundef nonnull align 4 dereferenceable(8) %0) #0 comdat align 2 {
  %2 = alloca ptr, align 8
  store ptr %0, ptr %2, align 8
  %3 = load ptr, ptr %2, align 8
  %4 = getelementptr inbounds nuw %"struct.llvm::coverage::Counter", ptr %3, i32 0, i32 1
  %5 = load i32, ptr %4, align 4
  ret i32 %5
}

; Function Attrs: mustprogress nounwind uwtable
define linkonce_odr hidden noundef i32 @_ZNK4llvm8coverage7Counter12getCounterIDEv(ptr noundef nonnull align 4 dereferenceable(8) %0) #0 comdat align 2 {
  %2 = alloca ptr, align 8
  store ptr %0, ptr %2, align 8
  %3 = load ptr, ptr %2, align 8
  %4 = getelementptr inbounds nuw %"struct.llvm::coverage::Counter", ptr %3, i32 0, i32 1
  %5 = load i32, ptr %4, align 4
  ret i32 %5
}

; Function Attrs: mustprogress nounwind uwtable
define linkonce_odr hidden noundef i32 @_ZNK4llvm8coverage7Counter7getKindEv(ptr noundef nonnull align 4 dereferenceable(8) %0) #0 comdat align 2 {
  %2 = alloca ptr, align 8
  store ptr %0, ptr %2, align 8
  %3 = load ptr, ptr %2, align 8
  %4 = getelementptr inbounds nuw %"struct.llvm::coverage::Counter", ptr %3, i32 0, i32 0
  %5 = load i32, ptr %4, align 4
  ret i32 %5
}

; Function Attrs: mustprogress nounwind uwtable
define dso_local void @_ZN4llvm8coverage24CounterExpressionBuilder12extractTermsENS0_7CounterEiRNS_15SmallVectorImplINS1_4TermEEE(ptr noundef nonnull align 8 dereferenceable(48) %0, i64 %1, i32 noundef %2, ptr noundef nonnull align 8 dereferenceable(16) %3) #0 align 2 {
  %5 = alloca %"struct.llvm::coverage::Counter", align 4
  %6 = alloca ptr, align 8
  %7 = alloca i32, align 4
  %8 = alloca ptr, align 8
  %9 = alloca i32, align 4
  %10 = alloca ptr, align 8
  %11 = alloca %"struct.llvm::coverage::Counter", align 4
  %12 = alloca %"struct.llvm::coverage::Counter", align 4
  store i64 %1, ptr %5, align 4
  store ptr %0, ptr %6, align 8
  store i32 %2, ptr %7, align 4
  store ptr %3, ptr %8, align 8
  %13 = load ptr, ptr %6, align 8
  %14 = call noundef i32 @_ZNK4llvm8coverage7Counter7getKindEv(ptr noundef nonnull align 4 dereferenceable(8) %5)
  switch i32 %14, label %45 [
    i32 0, label %15
    i32 1, label %16
    i32 2, label %20
  ]

15:                                               ; preds = %4
  br label %45

16:                                               ; preds = %4
  %17 = load ptr, ptr %8, align 8
  %18 = call noundef i32 @_ZNK4llvm8coverage7Counter12getCounterIDEv(ptr noundef nonnull align 4 dereferenceable(8) %5)
  store i32 %18, ptr %9, align 4
  %19 = call noundef nonnull align 4 dereferenceable(8) ptr @_ZN4llvm15SmallVectorImplINS_8coverage24CounterExpressionBuilder4TermEE12emplace_backIJjRiEEERS3_DpOT_(ptr noundef nonnull align 8 dereferenceable(16) %17, ptr noundef nonnull align 4 dereferenceable(4) %9, ptr noundef nonnull align 4 dereferenceable(4) %7)
  br label %45

20:                                               ; preds = %4
  %21 = getelementptr inbounds nuw %"class.llvm::coverage::CounterExpressionBuilder", ptr %13, i32 0, i32 0
  %22 = call noundef i32 @_ZNK4llvm8coverage7Counter15getExpressionIDEv(ptr noundef nonnull align 4 dereferenceable(8) %5)
  %23 = zext i32 %22 to i64
  %24 = call noundef nonnull align 4 dereferenceable(20) ptr @_ZNSt6vectorIN4llvm8coverage17CounterExpressionESaIS2_EEixEm(ptr noundef nonnull align 8 dereferenceable(24) %21, i64 noundef %23) #6
  store ptr %24, ptr %10, align 8
  %25 = load ptr, ptr %10, align 8
  %26 = getelementptr inbounds nuw %"struct.llvm::coverage::CounterExpression", ptr %25, i32 0, i32 1
  call void @llvm.memcpy.p0.p0.i64(ptr align 4 %11, ptr align 4 %26, i64 8, i1 false)
  %27 = load i32, ptr %7, align 4
  %28 = load ptr, ptr %8, align 8
  %29 = load i64, ptr %11, align 4
  call void @_ZN4llvm8coverage24CounterExpressionBuilder12extractTermsENS0_7CounterEiRNS_15SmallVectorImplINS1_4TermEEE(ptr noundef nonnull align 8 dereferenceable(48) %13, i64 %29, i32 noundef %27, ptr noundef nonnull align 8 dereferenceable(16) %28)
  %30 = load ptr, ptr %10, align 8
  %31 = getelementptr inbounds nuw %"struct.llvm::coverage::CounterExpression", ptr %30, i32 0, i32 2
  call void @llvm.memcpy.p0.p0.i64(ptr align 4 %12, ptr align 4 %31, i64 8, i1 false)
  %32 = load ptr, ptr %10, align 8
  %33 = getelementptr inbounds nuw %"struct.llvm::coverage::CounterExpression", ptr %32, i32 0, i32 0
  %34 = load i32, ptr %33, align 4
  %35 = icmp eq i32 %34, 0
  br i1 %35, label %36, label %39

36:                                               ; preds = %20
  %37 = load i32, ptr %7, align 4
  %38 = sub nsw i32 0, %37
  br label %41

39:                                               ; preds = %20
  %40 = load i32, ptr %7, align 4
  br label %41

41:                                               ; preds = %39, %36
  %42 = phi i32 [ %38, %36 ], [ %40, %39 ]
  %43 = load ptr, ptr %8, align 8
  %44 = load i64, ptr %12, align 4
  call void @_ZN4llvm8coverage24CounterExpressionBuilder12extractTermsENS0_7CounterEiRNS_15SmallVectorImplINS1_4TermEEE(ptr noundef nonnull align 8 dereferenceable(48) %13, i64 %44, i32 noundef %42, ptr noundef nonnull align 8 dereferenceable(16) %43)
  br label %45

45:                                               ; preds = %41, %16, %15, %4
  ret void
}