; Function Attrs: mustprogress nounwind uwtable
define dso_local void @_ZN4llvm8coverage24CounterExpressionBuilder12extractTermsENS0_7CounterEiRNS_15SmallVectorImplINS1_4TermEEE(ptr noundef nonnull readonly align 8 captures(none) dereferenceable(48) %0, i64 %1, i32 noundef %2, ptr noundef nonnull align 8 dereferenceable(16) %3) local_unnamed_addr #0 align 2 {
  %5 = alloca i32, align 4
  %6 = alloca i32, align 4
  br label %tailrecurse

tailrecurse:                                      ; preds = %9, %4
  %.tr9 = phi i64 [ %1, %4 ], [ %.sroa.0.0.copyload, %9 ]
  %.tr10 = phi i32 [ %2, %4 ], [ %17, %9 ]
  %.sroa.0.0.extract.trunc = trunc i64 %.tr9 to i32
  %.sroa.2.0.extract.shift = lshr i64 %.tr9, 32
  store i32 %.tr10, ptr %5, align 4
  switch i32 %.sroa.0.0.extract.trunc, label %.loopexit [
    i32 2, label %9
    i32 1, label %7
  ]

7:                                                ; preds = %tailrecurse
  %.sroa.2.0.extract.trunc = trunc nuw i64 %.sroa.2.0.extract.shift to i32
  store i32 %.sroa.2.0.extract.trunc, ptr %6, align 4
  %8 = call noundef nonnull align 4 dereferenceable(8) ptr @_ZN4llvm15SmallVectorImplINS_8coverage24CounterExpressionBuilder4TermEE12emplace_backIJjRiEEERS3_DpOT_(ptr noundef nonnull align 8 dereferenceable(16) %3, ptr noundef nonnull align 4 dereferenceable(4) %6, ptr noundef nonnull align 4 dereferenceable(4) %5)
  br label %.loopexit

9:                                                ; preds = %tailrecurse
  %10 = load ptr, ptr %0, align 8
  %11 = getelementptr inbounds nuw %"struct.llvm::coverage::CounterExpression", ptr %10, i64 %.sroa.2.0.extract.shift
  %12 = getelementptr inbounds nuw i8, ptr %11, i64 4
  %.sroa.01.0.copyload = load i64, ptr %12, align 4
  tail call void @_ZN4llvm8coverage24CounterExpressionBuilder12extractTermsENS0_7CounterEiRNS_15SmallVectorImplINS1_4TermEEE(ptr noundef nonnull align 8 dereferenceable(48) %0, i64 %.sroa.01.0.copyload, i32 noundef %.tr10, ptr noundef nonnull align 8 dereferenceable(16) %3)
  %13 = getelementptr inbounds nuw i8, ptr %11, i64 12
  %.sroa.0.0.copyload = load i64, ptr %13, align 4
  %14 = load i32, ptr %11, align 4
  %15 = icmp eq i32 %14, 0
  %16 = sub nsw i32 0, %.tr10
  %17 = select i1 %15, i32 %16, i32 %.tr10
  br label %tailrecurse

.loopexit:                                        ; preds = %tailrecurse, %7
  ret void
}